; Function Attrs: mustprogress uwtable
define void @_ZNK19OpenColorIO_v2_5dev12ViewingRules4Impl8validateESt8functionIFSt10shared_ptrIKNS_10ColorSpaceEEPKcEERKS3_INS_13ColorSpaceSetEE(ptr noundef nonnull readonly align 8 captures(none) dereferenceable(24) %0, ptr noundef %1, ptr noundef nonnull align 8 dereferenceable(16) %2) local_unnamed_addr #0 align 2 personality ptr @__gxx_personality_v0 {
  %4 = alloca %"class.std::function", align 8
  %5 = load ptr, ptr %0, align 8, !tbaa !35
  %6 = getelementptr inbounds nuw i8, ptr %0, i64 8
  %7 = load ptr, ptr %6, align 8, !tbaa !35
  %.not13 = icmp eq ptr %5, %7
  br i1 %.not13, label %._crit_edge, label %.lr.ph

.lr.ph:                                           ; preds = %3
  %8 = getelementptr inbounds nuw i8, ptr %4, i64 16
  %9 = getelementptr inbounds nuw i8, ptr %4, i64 24
  %10 = getelementptr inbounds nuw i8, ptr %1, i64 16
  %11 = getelementptr inbounds nuw i8, ptr %1, i64 24
  br label %12

._crit_edge:                                      ; preds = %_ZNSt14_Function_baseD2Ev.exit, %3
  ret void

12:                                               ; preds = %.lr.ph, %_ZNSt14_Function_baseD2Ev.exit
  %.sroa.08.014 = phi ptr [ %5, %.lr.ph ], [ %35, %_ZNSt14_Function_baseD2Ev.exit ]
  %13 = load ptr, ptr %.sroa.08.014, align 8, !tbaa !36
  call void @llvm.memset.p0.i64(ptr noundef nonnull align 8 dereferenceable(32) %4, i8 0, i64 32, i1 false)
  %14 = load ptr, ptr %10, align 8, !tbaa !50
  %.not.i.i.not.i = icmp eq ptr %14, null
  br i1 %.not.i.i.not.i, label %_ZNSt8functionIFSt10shared_ptrIKN19OpenColorIO_v2_5dev10ColorSpaceEEPKcEEC2ERKS8_.exit, label %15

15:                                               ; preds = %12
  %16 = invoke noundef zeroext i1 %14(ptr noundef nonnull align 8 dereferenceable(32) %4, ptr noundef nonnull align 8 dereferenceable(32) %1, i32 noundef 2)
          to label %17 unwind label %20

17:                                               ; preds = %15
  %18 = load ptr, ptr %11, align 8, !tbaa !52
  store ptr %18, ptr %9, align 8, !tbaa !52
  %19 = load ptr, ptr %10, align 8, !tbaa !50
  store ptr %19, ptr %8, align 8, !tbaa !50
  br label %_ZNSt8functionIFSt10shared_ptrIKN19OpenColorIO_v2_5dev10ColorSpaceEEPKcEEC2ERKS8_.exit

20:                                               ; preds = %15
  %21 = landingpad { ptr, i32 }
          cleanup
  %22 = load ptr, ptr %8, align 8, !tbaa !50
  %.not.i.i = icmp eq ptr %22, null
  br i1 %.not.i.i, label %common.resume, label %23

23:                                               ; preds = %20
  %24 = invoke noundef zeroext i1 %22(ptr noundef nonnull align 8 dereferenceable(32) %4, ptr noundef nonnull align 8 dereferenceable(32) %4, i32 noundef 3)
          to label %common.resume unwind label %25

25:                                               ; preds = %23
  %26 = landingpad { ptr, i32 }
          catch ptr null
  %27 = extractvalue { ptr, i32 } %26, 0
  call void @__clang_call_terminate(ptr %27) #28
  unreachable

common.resume:                                    ; preds = %39, %36, %20, %23
  %common.resume.op = phi { ptr, i32 } [ %21, %23 ], [ %21, %20 ], [ %37, %36 ], [ %37, %39 ]
  resume { ptr, i32 } %common.resume.op

_ZNSt8functionIFSt10shared_ptrIKN19OpenColorIO_v2_5dev10ColorSpaceEEPKcEEC2ERKS8_.exit: ; preds = %12, %17
  invoke void @_ZNK19OpenColorIO_v2_5dev11ViewingRule8validateESt8functionIFSt10shared_ptrIKNS_10ColorSpaceEEPKcEERKS2_INS_13ColorSpaceSetEE(ptr noundef nonnull align 8 dereferenceable(144) %13, ptr noundef nonnull %4, ptr noundef nonnull align 8 dereferenceable(16) %2)
          to label %28 unwind label %36

28:                                               ; preds = %_ZNSt8functionIFSt10shared_ptrIKN19OpenColorIO_v2_5dev10ColorSpaceEEPKcEEC2ERKS8_.exit
  %29 = load ptr, ptr %8, align 8, !tbaa !50
  %.not.i = icmp eq ptr %29, null
  br i1 %.not.i, label %_ZNSt14_Function_baseD2Ev.exit, label %30

30:                                               ; preds = %28
  %31 = invoke noundef zeroext i1 %29(ptr noundef nonnull align 8 dereferenceable(32) %4, ptr noundef nonnull align 8 dereferenceable(32) %4, i32 noundef 3)
          to label %_ZNSt14_Function_baseD2Ev.exit unwind label %32

32:                                               ; preds = %30
  %33 = landingpad { ptr, i32 }
          catch ptr null
  %34 = extractvalue { ptr, i32 } %33, 0
  call void @__clang_call_terminate(ptr %34) #28
  unreachable

_ZNSt14_Function_baseD2Ev.exit:                   ; preds = %28, %30
  %35 = getelementptr inbounds nuw i8, ptr %.sroa.08.014, i64 16
  %.not = icmp eq ptr %35, %7
  br i1 %.not, label %._crit_edge, label %12

36:                                               ; preds = %_ZNSt8functionIFSt10shared_ptrIKN19OpenColorIO_v2_5dev10ColorSpaceEEPKcEEC2ERKS8_.exit
  %37 = landingpad { ptr, i32 }
          cleanup
  %38 = load ptr, ptr %8, align 8, !tbaa !50
  %.not.i6 = icmp eq ptr %38, null
  br i1 %.not.i6, label %common.resume, label %39

39:                                               ; preds = %36
  %40 = invoke noundef zeroext i1 %38(ptr noundef nonnull align 8 dereferenceable(32) %4, ptr noundef nonnull align 8 dereferenceable(32) %4, i32 noundef 3)
          to label %common.resume unwind label %41

41:                                               ; preds = %39
  %42 = landingpad { ptr, i32 }
          catch ptr null
  %43 = extractvalue { ptr, i32 } %42, 0
  call void @__clang_call_terminate(ptr %43) #28
  unreachable
}